target datalayout = "e-m:e-p270:32:32-p271:32:32-p272:64:64-i64:64-i128:128-f80:128-n8:16:32:64-S128"
target triple = "x86_64-pc-linux-gnu"

%"class.pxrInternal_v0_24__pxrReserved__::pxr_half::half" = type { i16 }
%"class.pxrInternal_v0_24__pxrReserved__::GfVec4h" = type { [4 x %"class.pxrInternal_v0_24__pxrReserved__::pxr_half::half"] }

@.str.2 = private unnamed_addr constant [3 x i8] c", \00", align 1

; Function Attrs: mustprogress nounwind uwtable
define linkonce_odr i16 @_ZN32pxrInternal_v0_24__pxrReserved__17Gf_OstreamHelperPINS_8pxr_half4halfEEET_S3_(i16 %0) #2 comdat {
  %2 = alloca %"class.pxrInternal_v0_24__pxrReserved__::pxr_half::half", align 2
  %3 = alloca %"class.pxrInternal_v0_24__pxrReserved__::pxr_half::half", align 2
  %4 = getelementptr inbounds nuw %"class.pxrInternal_v0_24__pxrReserved__::pxr_half::half", ptr %3, i32 0, i32 0
  store i16 %0, ptr %4, align 2
  call void @llvm.memcpy.p0.p0.i64(ptr align 2 %2, ptr align 2 %3, i64 2, i1 false)
  %5 = getelementptr inbounds nuw %"class.pxrInternal_v0_24__pxrReserved__::pxr_half::half", ptr %2, i32 0, i32 0
  %6 = load i16, ptr %5, align 2
  ret i16 %6
}

; Function Attrs: mustprogress nounwind uwtable
define linkonce_odr noundef nonnull align 2 dereferenceable(2) ptr @_ZNK32pxrInternal_v0_24__pxrReserved__7GfVec4hixEm(ptr noundef nonnull align 2 dereferenceable(8) %0, i64 noundef %1) #2 comdat align 2 {
  %3 = alloca ptr, align 8
  %4 = alloca i64, align 8
  store ptr %0, ptr %3, align 8
  store i64 %1, ptr %4, align 8
  %5 = load ptr, ptr %3, align 8
  %6 = getelementptr inbounds nuw %"class.pxrInternal_v0_24__pxrReserved__::GfVec4h", ptr %5, i32 0, i32 0
  %7 = load i64, ptr %4, align 8
  %8 = getelementptr inbounds [4 x %"class.pxrInternal_v0_24__pxrReserved__::pxr_half::half"], ptr %6, i64 0, i64 %7
  ret ptr %8
}

; Function Attrs: mustprogress uwtable
define noundef nonnull align 8 dereferenceable(8) ptr @_ZN32pxrInternal_v0_24__pxrReserved__lsERSoRKNS_7GfVec4hE(ptr noundef nonnull align 8 dereferenceable(8) %0, ptr noundef nonnull align 2 dereferenceable(8) %1) #0 {
  %3 = alloca ptr, align 8
  %4 = alloca ptr, align 8
  %5 = alloca %"class.pxrInternal_v0_24__pxrReserved__::pxr_half::half", align 2
  %6 = alloca %"class.pxrInternal_v0_24__pxrReserved__::pxr_half::half", align 2
  %7 = alloca %"class.pxrInternal_v0_24__pxrReserved__::pxr_half::half", align 2
  %8 = alloca %"class.pxrInternal_v0_24__pxrReserved__::pxr_half::half", align 2
  %9 = alloca %"class.pxrInternal_v0_24__pxrReserved__::pxr_half::half", align 2
  %10 = alloca %"class.pxrInternal_v0_24__pxrReserved__::pxr_half::half", align 2
  %11 = alloca %"class.pxrInternal_v0_24__pxrReserved__::pxr_half::half", align 2
  %12 = alloca %"class.pxrInternal_v0_24__pxrReserved__::pxr_half::half", align 2
  store ptr %0, ptr %3, align 8
  store ptr %1, ptr %4, align 8
  %13 = load ptr, ptr %3, align 8
  %14 = call noundef nonnull align 8 dereferenceable(8) ptr @_ZStlsISt11char_traitsIcEERSt13basic_ostreamIcT_ES5_c(ptr noundef nonnull align 8 dereferenceable(8) %13, i8 noundef signext 40)
  %15 = load ptr, ptr %4, align 8
  %16 = call noundef nonnull align 2 dereferenceable(2) ptr @_ZNK32pxrInternal_v0_24__pxrReserved__7GfVec4hixEm(ptr noundef nonnull align 2 dereferenceable(8) %15, i64 noundef 0)
  call void @llvm.memcpy.p0.p0.i64(ptr align 2 %6, ptr align 2 %16, i64 2, i1 false)
  %17 = getelementptr inbounds nuw %"class.pxrInternal_v0_24__pxrReserved__::pxr_half::half", ptr %6, i32 0, i32 0
  %18 = load i16, ptr %17, align 2
  %19 = call i16 @_ZN32pxrInternal_v0_24__pxrReserved__17Gf_OstreamHelperPINS_8pxr_half4halfEEET_S3_(i16 %18)
  %20 = getelementptr inbounds nuw %"class.pxrInternal_v0_24__pxrReserved__::pxr_half::half", ptr %5, i32 0, i32 0
  store i16 %19, ptr %20, align 2
  %21 = getelementptr inbounds nuw %"class.pxrInternal_v0_24__pxrReserved__::pxr_half::half", ptr %5, i32 0, i32 0
  %22 = load i16, ptr %21, align 2
  %23 = call noundef nonnull align 8 dereferenceable(8) ptr @_ZN32pxrInternal_v0_24__pxrReserved__8pxr_halflsERSoNS0_4halfE(ptr noundef nonnull align 8 dereferenceable(8) %14, i16 %22)
  %24 = call noundef nonnull align 8 dereferenceable(8) ptr @_ZStlsISt11char_traitsIcEERSt13basic_ostreamIcT_ES5_PKc(ptr noundef nonnull align 8 dereferenceable(8) %23, ptr noundef @.str.2)
  %25 = load ptr, ptr %4, align 8
  %26 = call noundef nonnull align 2 dereferenceable(2) ptr @_ZNK32pxrInternal_v0_24__pxrReserved__7GfVec4hixEm(ptr noundef nonnull align 2 dereferenceable(8) %25, i64 noundef 1)
  call void @llvm.memcpy.p0.p0.i64(ptr align 2 %8, ptr align 2 %26, i64 2, i1 false)
  %27 = getelementptr inbounds nuw %"class.pxrInternal_v0_24__pxrReserved__::pxr_half::half", ptr %8, i32 0, i32 0
  %28 = load i16, ptr %27, align 2
  %29 = call i16 @_ZN32pxrInternal_v0_24__pxrReserved__17Gf_OstreamHelperPINS_8pxr_half4halfEEET_S3_(i16 %28)
  %30 = getelementptr inbounds nuw %"class.pxrInternal_v0_24__pxrReserved__::pxr_half::half", ptr %7, i32 0, i32 0
  store i16 %29, ptr %30, align 2
  %31 = getelementptr inbounds nuw %"class.pxrInternal_v0_24__pxrReserved__::pxr_half::half", ptr %7, i32 0, i32 0
  %32 = load i16, ptr %31, align 2
  %33 = call noundef nonnull align 8 dereferenceable(8) ptr @_ZN32pxrInternal_v0_24__pxrReserved__8pxr_halflsERSoNS0_4halfE(ptr noundef nonnull align 8 dereferenceable(8) %24, i16 %32)
  %34 = call noundef nonnull align 8 dereferenceable(8) ptr @_ZStlsISt11char_traitsIcEERSt13basic_ostreamIcT_ES5_PKc(ptr noundef nonnull align 8 dereferenceable(8) %33, ptr noundef @.str.2)
  %35 = load ptr, ptr %4, align 8
  %36 = call noundef nonnull align 2 dereferenceable(2) ptr @_ZNK32pxrInternal_v0_24__pxrReserved__7GfVec4hixEm(ptr noundef nonnull align 2 dereferenceable(8) %35, i64 noundef 2)
  call void @llvm.memcpy.p0.p0.i64(ptr align 2 %10, ptr align 2 %36, i64 2, i1 false)
  %37 = getelementptr inbounds nuw %"class.pxrInternal_v0_24__pxrReserved__::pxr_half::half", ptr %10, i32 0, i32 0
  %38 = load i16, ptr %37, align 2
  %39 = call i16 @_ZN32pxrInternal_v0_24__pxrReserved__17Gf_OstreamHelperPINS_8pxr_half4halfEEET_S3_(i16 %38)
  %40 = getelementptr inbounds nuw %"class.pxrInternal_v0_24__pxrReserved__::pxr_half::half", ptr %9, i32 0, i32 0
  store i16 %39, ptr %40, align 2
  %41 = getelementptr inbounds nuw %"class.pxrInternal_v0_24__pxrReserved__::pxr_half::half", ptr %9, i32 0, i32 0
  %42 = load i16, ptr %41, align 2
  %43 = call noundef nonnull align 8 dereferenceable(8) ptr @_ZN32pxrInternal_v0_24__pxrReserved__8pxr_halflsERSoNS0_4halfE(ptr noundef nonnull align 8 dereferenceable(8) %34, i16 %42)
  %44 = call noundef nonnull align 8 dereferenceable(8) ptr @_ZStlsISt11char_traitsIcEERSt13basic_ostreamIcT_ES5_PKc(ptr noundef nonnull align 8 dereferenceable(8) %43, ptr noundef @.str.2)
  %45 = load ptr, ptr %4, align 8
  %46 = call noundef nonnull align 2 dereferenceable(2) ptr @_ZNK32pxrInternal_v0_24__pxrReserved__7GfVec4hixEm(ptr noundef nonnull align 2 dereferenceable(8) %45, i64 noundef 3)
  call void @llvm.memcpy.p0.p0.i64(ptr align 2 %12, ptr align 2 %46, i64 2, i1 false)
  %47 = getelementptr inbounds nuw %"class.pxrInternal_v0_24__pxrReserved__::pxr_half::half", ptr %12, i32 0, i32 0
  %48 = load i16, ptr %47, align 2
  %49 = call i16 @_ZN32pxrInternal_v0_24__pxrReserved__17Gf_OstreamHelperPINS_8pxr_half4halfEEET_S3_(i16 %48)
  %50 = getelementptr inbounds nuw %"class.pxrInternal_v0_24__pxrReserved__::pxr_half::half", ptr %11, i32 0, i32 0
  store i16 %49, ptr %50, align 2
  %51 = getelementptr inbounds nuw %"class.pxrInternal_v0_24__pxrReserved__::pxr_half::half", ptr %11, i32 0, i32 0
  %52 = load i16, ptr %51, align 2
  %53 = call noundef nonnull align 8 dereferenceable(8) ptr @_ZN32pxrInternal_v0_24__pxrReserved__8pxr_halflsERSoNS0_4halfE(ptr noundef nonnull align 8 dereferenceable(8) %44, i16 %52)
  %54 = call noundef nonnull align 8 dereferenceable(8) ptr @_ZStlsISt11char_traitsIcEERSt13basic_ostreamIcT_ES5_c(ptr noundef nonnull align 8 dereferenceable(8) %53, i8 noundef signext 41)
  ret ptr %54
}