; Function Attrs: mustprogress uwtable
define noundef nonnull align 8 dereferenceable(8) ptr @_ZN32pxrInternal_v0_24__pxrReserved__lsERSoRKNS_7GfVec4hE(ptr noundef nonnull align 8 dereferenceable(8) %0, ptr nocapture noundef nonnull readonly align 2 dereferenceable(8) %1) local_unnamed_addr #0 {
  %3 = tail call noundef nonnull align 8 dereferenceable(8) ptr @_ZStlsISt11char_traitsIcEERSt13basic_ostreamIcT_ES5_c(ptr noundef nonnull align 8 dereferenceable(8) %0, i8 noundef signext 40)
  %.sroa.06.0.copyload = load i16, ptr %1, align 2
  %4 = tail call noundef nonnull align 8 dereferenceable(8) ptr @_ZN32pxrInternal_v0_24__pxrReserved__8pxr_halflsERSoNS0_4halfE(ptr noundef nonnull align 8 dereferenceable(8) %3, i16 %.sroa.06.0.copyload)
  %5 = tail call noundef nonnull align 8 dereferenceable(8) ptr @_ZStlsISt11char_traitsIcEERSt13basic_ostreamIcT_ES5_PKc(ptr noundef nonnull align 8 dereferenceable(8) %4, ptr noundef nonnull @.str.2)
  %6 = getelementptr inbounds i8, ptr %1, i64 2
  %.sroa.04.0.copyload = load i16, ptr %6, align 2
  %7 = tail call noundef nonnull align 8 dereferenceable(8) ptr @_ZN32pxrInternal_v0_24__pxrReserved__8pxr_halflsERSoNS0_4halfE(ptr noundef nonnull align 8 dereferenceable(8) %5, i16 %.sroa.04.0.copyload)
  %8 = tail call noundef nonnull align 8 dereferenceable(8) ptr @_ZStlsISt11char_traitsIcEERSt13basic_ostreamIcT_ES5_PKc(ptr noundef nonnull align 8 dereferenceable(8) %7, ptr noundef nonnull @.str.2)
  %9 = getelementptr inbounds i8, ptr %1, i64 4
  %.sroa.02.0.copyload = load i16, ptr %9, align 2
  %10 = tail call noundef nonnull align 8 dereferenceable(8) ptr @_ZN32pxrInternal_v0_24__pxrReserved__8pxr_halflsERSoNS0_4halfE(ptr noundef nonnull align 8 dereferenceable(8) %8, i16 %.sroa.02.0.copyload)
  %11 = tail call noundef nonnull align 8 dereferenceable(8) ptr @_ZStlsISt11char_traitsIcEERSt13basic_ostreamIcT_ES5_PKc(ptr noundef nonnull align 8 dereferenceable(8) %10, ptr noundef nonnull @.str.2)
  %12 = getelementptr inbounds i8, ptr %1, i64 6
  %.sroa.0.0.copyload = load i16, ptr %12, align 2
  %13 = tail call noundef nonnull align 8 dereferenceable(8) ptr @_ZN32pxrInternal_v0_24__pxrReserved__8pxr_halflsERSoNS0_4halfE(ptr noundef nonnull align 8 dereferenceable(8) %11, i16 %.sroa.0.0.copyload)
  %14 = tail call noundef nonnull align 8 dereferenceable(8) ptr @_ZStlsISt11char_traitsIcEERSt13basic_ostreamIcT_ES5_c(ptr noundef nonnull align 8 dereferenceable(8) %13, i8 noundef signext 41)
  ret ptr %14
}